; Function Attrs: nofree nosync nounwind memory(readwrite, inaccessiblemem: none) uwtable
define void @Gia_AcecMarkHadd(ptr noundef readonly captures(none) %0, ptr noundef readonly captures(none) %1) local_unnamed_addr #0 {
  %3 = load i32, ptr %1, align 4, !tbaa !28
  %4 = getelementptr i8, ptr %0, i64 32
  %.val14 = load ptr, ptr %4, align 8, !tbaa !3
  %5 = sext i32 %3 to i64
  %6 = getelementptr inbounds %struct.Gia_Obj_t_, ptr %.val14, i64 %5
  %.val15 = load i64, ptr %6, align 4
  %7 = trunc i64 %.val15 to i32
  %8 = and i32 %7, 536870911
  %9 = sub nsw i32 %3, %8
  %10 = lshr i64 %.val15, 32
  %11 = trunc nuw i64 %10 to i32
  %12 = and i32 %11, 536870911
  %13 = sub nsw i32 %3, %12
  %14 = sext i32 %9 to i64
  %15 = getelementptr inbounds %struct.Gia_Obj_t_, ptr %.val14, i64 %14
  %16 = load i64, ptr %15, align 4
  %17 = or i64 %16, 1073741824
  store i64 %17, ptr %15, align 4
  %.val = load ptr, ptr %4, align 8, !tbaa !3
  %18 = sext i32 %13 to i64
  %19 = getelementptr inbounds %struct.Gia_Obj_t_, ptr %.val, i64 %18
  %20 = load i64, ptr %19, align 4
  %21 = or i64 %20, 1073741824
  store i64 %21, ptr %19, align 4
  %22 = load i32, ptr %1, align 4, !tbaa !28
  tail call void @Gia_AcecMark_rec(ptr noundef %0, i32 noundef %22, i32 noundef 1)
  %23 = getelementptr inbounds nuw i8, ptr %1, i64 4
  %24 = load i32, ptr %23, align 4, !tbaa !28
  tail call void @Gia_AcecMark_rec(ptr noundef %0, i32 noundef %24, i32 noundef 1)
  ret void
}